target datalayout = "e-m:e-p270:32:32-p271:32:32-p272:64:64-i64:64-i128:128-f80:128-n8:16:32:64-S128"
target triple = "x86_64-pc-linux-gnu"

%struct.diff_queue_struct = type { ptr, i32, i32 }
%struct.range_set = type { i32, i32, ptr }
%struct.line_log_data = type { ptr, ptr, %struct.range_set, ptr, %struct.diff_ranges }
%struct.diff_ranges = type { %struct.range_set, %struct.range_set }
%struct.object_id = type { [32 x i8], i32 }
%struct.diff_filespec = type { %struct.object_id, ptr, ptr, ptr, i64, i32, i32, i16, i16, ptr }
%struct.diff_filepair = type { ptr, ptr, i16, i8, i8 }

@diff_queued_diff = external global %struct.diff_queue_struct, align 8

; Function Attrs: nounwind uwtable
define internal void @filter_diffs_for_paths(ptr noundef %0, i32 noundef %1) #0 {
  %3 = alloca ptr, align 8
  %4 = alloca i32, align 4
  %5 = alloca i32, align 4
  %6 = alloca %struct.diff_queue_struct, align 8
  %7 = alloca ptr, align 8
  %8 = alloca ptr, align 8
  %9 = alloca i32, align 4
  store ptr %0, ptr %3, align 8, !tbaa !81
  store i32 %1, ptr %4, align 4, !tbaa !20
  call void @llvm.lifetime.start.p0(i64 4, ptr %5) #9
  call void @llvm.lifetime.start.p0(i64 16, ptr %6) #9
  call void @llvm.memset.p0.i64(ptr align 8 %6, i8 0, i64 16, i1 false)
  store i32 0, ptr %5, align 4, !tbaa !20
  br label %10

10:                                               ; preds = %68, %2
  %11 = load i32, ptr %5, align 4, !tbaa !20
  %12 = load i32, ptr getelementptr inbounds nuw (%struct.diff_queue_struct, ptr @diff_queued_diff, i32 0, i32 2), align 4, !tbaa !212
  %13 = icmp slt i32 %11, %12
  br i1 %13, label %14, label %71

14:                                               ; preds = %10
  call void @llvm.lifetime.start.p0(i64 8, ptr %7) #9
  %15 = load ptr, ptr @diff_queued_diff, align 8, !tbaa !215
  %16 = load i32, ptr %5, align 4, !tbaa !20
  %17 = sext i32 %16 to i64
  %18 = getelementptr inbounds ptr, ptr %15, i64 %17
  %19 = load ptr, ptr %18, align 8, !tbaa !190
  store ptr %19, ptr %7, align 8, !tbaa !190
  call void @llvm.lifetime.start.p0(i64 8, ptr %8) #9
  store ptr null, ptr %8, align 8, !tbaa !81
  %20 = load ptr, ptr %7, align 8, !tbaa !190
  %21 = getelementptr inbounds nuw %struct.diff_filepair, ptr %20, i32 0, i32 1
  %22 = load ptr, ptr %21, align 8, !tbaa !196
  %23 = getelementptr inbounds nuw %struct.diff_filespec, ptr %22, i32 0, i32 7
  %24 = load i16, ptr %23, align 8, !tbaa !225
  %25 = zext i16 %24 to i32
  %26 = icmp ne i32 %25, 0
  br i1 %26, label %35, label %27

27:                                               ; preds = %14
  %28 = load i32, ptr %4, align 4, !tbaa !20
  %29 = icmp ne i32 %28, 0
  br i1 %29, label %30, label %32

30:                                               ; preds = %27
  %31 = load ptr, ptr %7, align 8, !tbaa !190
  call void @diff_q(ptr noundef %6, ptr noundef %31)
  br label %34

32:                                               ; preds = %27
  %33 = load ptr, ptr %7, align 8, !tbaa !190
  call void @diff_free_filepair(ptr noundef %33)
  br label %34

34:                                               ; preds = %32, %30
  store i32 4, ptr %9, align 4
  br label %65

35:                                               ; preds = %14
  %36 = load ptr, ptr %3, align 8, !tbaa !81
  store ptr %36, ptr %8, align 8, !tbaa !81
  br label %37

37:                                               ; preds = %53, %35
  %38 = load ptr, ptr %8, align 8, !tbaa !81
  %39 = icmp ne ptr %38, null
  br i1 %39, label %40, label %57

40:                                               ; preds = %37
  %41 = load ptr, ptr %8, align 8, !tbaa !81
  %42 = getelementptr inbounds nuw %struct.line_log_data, ptr %41, i32 0, i32 1
  %43 = load ptr, ptr %42, align 8, !tbaa !135
  %44 = load ptr, ptr %7, align 8, !tbaa !190
  %45 = getelementptr inbounds nuw %struct.diff_filepair, ptr %44, i32 0, i32 1
  %46 = load ptr, ptr %45, align 8, !tbaa !196
  %47 = getelementptr inbounds nuw %struct.diff_filespec, ptr %46, i32 0, i32 1
  %48 = load ptr, ptr %47, align 8, !tbaa !172
  %49 = call i32 @strcmp(ptr noundef %43, ptr noundef %48) #11
  %50 = icmp ne i32 %49, 0
  br i1 %50, label %52, label %51

51:                                               ; preds = %40
  br label %57

52:                                               ; preds = %40
  br label %53

53:                                               ; preds = %52
  %54 = load ptr, ptr %8, align 8, !tbaa !81
  %55 = getelementptr inbounds nuw %struct.line_log_data, ptr %54, i32 0, i32 0
  %56 = load ptr, ptr %55, align 8, !tbaa !131
  store ptr %56, ptr %8, align 8, !tbaa !81
  br label %37, !llvm.loop !227

57:                                               ; preds = %51, %37
  %58 = load ptr, ptr %8, align 8, !tbaa !81
  %59 = icmp ne ptr %58, null
  br i1 %59, label %60, label %62

60:                                               ; preds = %57
  %61 = load ptr, ptr %7, align 8, !tbaa !190
  call void @diff_q(ptr noundef %6, ptr noundef %61)
  br label %64

62:                                               ; preds = %57
  %63 = load ptr, ptr %7, align 8, !tbaa !190
  call void @diff_free_filepair(ptr noundef %63)
  br label %64

64:                                               ; preds = %62, %60
  store i32 0, ptr %9, align 4
  br label %65

65:                                               ; preds = %64, %34
  call void @llvm.lifetime.end.p0(i64 8, ptr %8) #9
  call void @llvm.lifetime.end.p0(i64 8, ptr %7) #9
  %66 = load i32, ptr %9, align 4
  switch i32 %66, label %73 [
    i32 0, label %67
    i32 4, label %68
  ]

67:                                               ; preds = %65
  br label %68

68:                                               ; preds = %67, %65
  %69 = load i32, ptr %5, align 4, !tbaa !20
  %70 = add nsw i32 %69, 1
  store i32 %70, ptr %5, align 4, !tbaa !20
  br label %10, !llvm.loop !228

71:                                               ; preds = %10
  %72 = load ptr, ptr @diff_queued_diff, align 8, !tbaa !215
  call void @free(ptr noundef %72) #9
  call void @llvm.memcpy.p0.p0.i64(ptr align 8 @diff_queued_diff, ptr align 8 %6, i64 16, i1 false), !tbaa.struct !229
  call void @llvm.lifetime.end.p0(i64 16, ptr %6) #9
  call void @llvm.lifetime.end.p0(i64 4, ptr %5) #9
  ret void

73:                                               ; preds = %65
  unreachable
}