; Function Attrs: nounwind uwtable
define internal fastcc void @filter_diffs_for_paths(ptr noundef nonnull readonly captures(none) %0, i32 noundef range(i32 0, 2) %1) unnamed_addr #0 {
  %3 = alloca %struct.diff_queue_struct, align 8
  call void @llvm.lifetime.start.p0(i64 16, ptr nonnull %3) #16
  call void @llvm.memset.p0.i64(ptr noundef nonnull align 8 dereferenceable(16) %3, i8 0, i64 16, i1 false)
  %4 = load i32, ptr getelementptr inbounds nuw (i8, ptr @diff_queued_diff, i64 12), align 4, !tbaa !181
  %5 = icmp sgt i32 %4, 0
  br i1 %5, label %.lr.ph, label %._crit_edge

.lr.ph:                                           ; preds = %2
  %.not15 = icmp eq i32 %1, 0
  br i1 %.not15, label %.lr.ph.split.us, label %.lr.ph.split

.lr.ph.split.us:                                  ; preds = %.lr.ph, %21
  %indvars.iv22 = phi i64 [ %indvars.iv.next23, %21 ], [ 0, %.lr.ph ]
  %6 = load ptr, ptr @diff_queued_diff, align 8, !tbaa !184
  %7 = getelementptr inbounds nuw ptr, ptr %6, i64 %indvars.iv22
  %8 = load ptr, ptr %7, align 8, !tbaa !186
  %9 = getelementptr inbounds nuw i8, ptr %8, i64 8
  %10 = load ptr, ptr %9, align 8, !tbaa !134
  %11 = getelementptr inbounds nuw i8, ptr %10, i64 80
  %12 = load i16, ptr %11, align 8, !tbaa !187
  %.not.us = icmp eq i16 %12, 0
  br i1 %.not.us, label %20, label %.preheader.us

13:                                               ; preds = %.preheader.us, %17
  %.018.us = phi ptr [ %0, %.preheader.us ], [ %18, %17 ]
  %14 = getelementptr inbounds nuw i8, ptr %.018.us, i64 8
  %15 = load ptr, ptr %14, align 8, !tbaa !113
  %16 = call i32 @strcmp(ptr noundef nonnull dereferenceable(1) %15, ptr noundef nonnull dereferenceable(1) %26) #18
  %.not17.us = icmp eq i32 %16, 0
  br i1 %.not17.us, label %19, label %17

17:                                               ; preds = %13
  %18 = load ptr, ptr %.018.us, align 8, !tbaa !118
  %.not16.us = icmp eq ptr %18, null
  br i1 %.not16.us, label %.critedge.us, label %13, !llvm.loop !211

19:                                               ; preds = %13
  call void @diff_q(ptr noundef nonnull %3, ptr noundef %8) #16
  br label %21

.critedge.us:                                     ; preds = %17
  call void @diff_free_filepair(ptr noundef %8) #16
  br label %21

20:                                               ; preds = %.lr.ph.split.us
  call void @diff_free_filepair(ptr noundef nonnull %8) #16
  br label %21

21:                                               ; preds = %20, %.critedge.us, %19
  %indvars.iv.next23 = add nuw nsw i64 %indvars.iv22, 1
  %22 = load i32, ptr getelementptr inbounds nuw (i8, ptr @diff_queued_diff, i64 12), align 4, !tbaa !181
  %23 = sext i32 %22 to i64
  %24 = icmp slt i64 %indvars.iv.next23, %23
  br i1 %24, label %.lr.ph.split.us, label %._crit_edge, !llvm.loop !212

.preheader.us:                                    ; preds = %.lr.ph.split.us
  %25 = getelementptr inbounds nuw i8, ptr %10, i64 40
  %26 = load ptr, ptr %25, align 8, !tbaa !102
  br label %13

.lr.ph.split:                                     ; preds = %.lr.ph, %44
  %indvars.iv = phi i64 [ %indvars.iv.next, %44 ], [ 0, %.lr.ph ]
  %27 = load ptr, ptr @diff_queued_diff, align 8, !tbaa !184
  %28 = getelementptr inbounds nuw ptr, ptr %27, i64 %indvars.iv
  %29 = load ptr, ptr %28, align 8, !tbaa !186
  %30 = getelementptr inbounds nuw i8, ptr %29, i64 8
  %31 = load ptr, ptr %30, align 8, !tbaa !134
  %32 = getelementptr inbounds nuw i8, ptr %31, i64 80
  %33 = load i16, ptr %32, align 8, !tbaa !187
  %.not = icmp eq i16 %33, 0
  br i1 %.not, label %36, label %.preheader

.preheader:                                       ; preds = %.lr.ph.split
  %34 = getelementptr inbounds nuw i8, ptr %31, i64 40
  %35 = load ptr, ptr %34, align 8, !tbaa !102
  br label %37

36:                                               ; preds = %.lr.ph.split
  call void @diff_q(ptr noundef nonnull %3, ptr noundef nonnull %29) #16
  br label %44

37:                                               ; preds = %.preheader, %41
  %.018 = phi ptr [ %0, %.preheader ], [ %42, %41 ]
  %38 = getelementptr inbounds nuw i8, ptr %.018, i64 8
  %39 = load ptr, ptr %38, align 8, !tbaa !113
  %40 = call i32 @strcmp(ptr noundef nonnull dereferenceable(1) %39, ptr noundef nonnull dereferenceable(1) %35) #18
  %.not17 = icmp eq i32 %40, 0
  br i1 %.not17, label %43, label %41

41:                                               ; preds = %37
  %42 = load ptr, ptr %.018, align 8, !tbaa !118
  %.not16 = icmp eq ptr %42, null
  br i1 %.not16, label %.critedge, label %37, !llvm.loop !211

43:                                               ; preds = %37
  call void @diff_q(ptr noundef nonnull %3, ptr noundef %29) #16
  br label %44

.critedge:                                        ; preds = %41
  call void @diff_free_filepair(ptr noundef %29) #16
  br label %44

44:                                               ; preds = %43, %.critedge, %36
  %indvars.iv.next = add nuw nsw i64 %indvars.iv, 1
  %45 = load i32, ptr getelementptr inbounds nuw (i8, ptr @diff_queued_diff, i64 12), align 4, !tbaa !181
  %46 = sext i32 %45 to i64
  %47 = icmp slt i64 %indvars.iv.next, %46
  br i1 %47, label %.lr.ph.split, label %._crit_edge, !llvm.loop !212

._crit_edge:                                      ; preds = %44, %21, %2
  %48 = load ptr, ptr @diff_queued_diff, align 8, !tbaa !184
  call void @free(ptr noundef %48) #16
  call void @llvm.memcpy.p0.p0.i64(ptr noundef nonnull align 8 dereferenceable(16) @diff_queued_diff, ptr noundef nonnull align 8 dereferenceable(16) %3, i64 16, i1 false), !tbaa.struct !213
  call void @llvm.lifetime.end.p0(i64 16, ptr nonnull %3) #16
  ret void
}